; ModuleID = '55/57.c'
source_filename = "55/57.c"
target datalayout = "e-m:e-p270:32:32-p271:32:32-p272:64:64-i64:64-f80:128-n8:16:32:64-S128"
target triple = "x86_64-pc-linux-gnu"

@.str = private unnamed_addr constant [9 x i8] c"%d %s %d\00", align 1
@.str.1 = private unnamed_addr constant [2 x i8] c"0\00", align 1
@.str.2 = private unnamed_addr constant [3 x i8] c"%c\00", align 1

; Function Attrs: noinline nounwind uwtable
define dso_local void @main() #0 {
  %1 = alloca [1000 x i32], align 16
  %2 = alloca [1000 x i32], align 16
  %3 = alloca [1000 x i32], align 16
  %4 = alloca i32, align 4
  %5 = alloca i32, align 4
  %6 = alloca i32, align 4
  %7 = alloca i32, align 4
  %8 = alloca i32, align 4
  %9 = alloca i32, align 4
  %10 = alloca i32, align 4
  %11 = alloca [1000 x i8], align 16
  %12 = alloca [1000 x i8], align 16
  store i32 0, i32* %8, align 4
  store i32 0, i32* %10, align 4
  %13 = getelementptr inbounds [1000 x i8], [1000 x i8]* %11, i64 0, i64 0
  %14 = call i32 (i8*, ...) @__isoc99_scanf(i8* getelementptr inbounds ([9 x i8], [9 x i8]* @.str, i64 0, i64 0), i32* %5, i8* %13, i32* %6)
  %15 = getelementptr inbounds [1000 x i8], [1000 x i8]* %11, i64 0, i64 0
  %16 = call i64 @strlen(i8* %15) #4
  %17 = trunc i64 %16 to i32
  store i32 %17, i32* %7, align 4
  %18 = getelementptr inbounds [1000 x i8], [1000 x i8]* %11, i64 0, i64 0
  %19 = load i8, i8* %18, align 16
  %20 = sext i8 %19 to i32
  %21 = icmp eq i32 %20, 48
  br i1 %21, label %22, label %24

22:                                               ; preds = %0
  %23 = call i32 (i8*, ...) @printf(i8* getelementptr inbounds ([2 x i8], [2 x i8]* @.str.1, i64 0, i64 0))
  br label %24

24:                                               ; preds = %22, %0
  %25 = getelementptr inbounds [1000 x i8], [1000 x i8]* %11, i64 0, i64 0
  %26 = load i8, i8* %25, align 16
  %27 = sext i8 %26 to i32
  %28 = icmp ne i32 %27, 48
  br i1 %28, label %29, label %223

29:                                               ; preds = %24
  store i32 0, i32* %4, align 4
  br label %30

30:                                               ; preds = %107, %29
  %31 = load i32, i32* %4, align 4
  %32 = load i32, i32* %7, align 4
  %33 = icmp slt i32 %31, %32
  br i1 %33, label %34, label %110

34:                                               ; preds = %30
  %35 = load i32, i32* %4, align 4
  %36 = sext i32 %35 to i64
  %37 = getelementptr inbounds [1000 x i8], [1000 x i8]* %11, i64 0, i64 %36
  %38 = load i8, i8* %37, align 1
  %39 = sext i8 %38 to i32
  %40 = icmp sle i32 %39, 90
  br i1 %40, label %41, label %58

41:                                               ; preds = %34
  %42 = load i32, i32* %4, align 4
  %43 = sext i32 %42 to i64
  %44 = getelementptr inbounds [1000 x i8], [1000 x i8]* %11, i64 0, i64 %43
  %45 = load i8, i8* %44, align 1
  %46 = sext i8 %45 to i32
  %47 = icmp sge i32 %46, 65
  br i1 %47, label %48, label %58

48:                                               ; preds = %41
  %49 = load i32, i32* %4, align 4
  %50 = sext i32 %49 to i64
  %51 = getelementptr inbounds [1000 x i8], [1000 x i8]* %11, i64 0, i64 %50
  %52 = load i8, i8* %51, align 1
  %53 = sext i8 %52 to i32
  %54 = sub nsw i32 %53, 55
  %55 = load i32, i32* %4, align 4
  %56 = sext i32 %55 to i64
  %57 = getelementptr inbounds [1000 x i32], [1000 x i32]* %1, i64 0, i64 %56
  store i32 %54, i32* %57, align 4
  br label %58

58:                                               ; preds = %48, %41, %34
  %59 = load i32, i32* %4, align 4
  %60 = sext i32 %59 to i64
  %61 = getelementptr inbounds [1000 x i8], [1000 x i8]* %11, i64 0, i64 %60
  %62 = load i8, i8* %61, align 1
  %63 = sext i8 %62 to i32
  %64 = icmp sle i32 %63, 122
  br i1 %64, label %65, label %82

65:                                               ; preds = %58
  %66 = load i32, i32* %4, align 4
  %67 = sext i32 %66 to i64
  %68 = getelementptr inbounds [1000 x i8], [1000 x i8]* %11, i64 0, i64 %67
  %69 = load i8, i8* %68, align 1
  %70 = sext i8 %69 to i32
  %71 = icmp sge i32 %70, 97
  br i1 %71, label %72, label %82

72:                                               ; preds = %65
  %73 = load i32, i32* %4, align 4
  %74 = sext i32 %73 to i64
  %75 = getelementptr inbounds [1000 x i8], [1000 x i8]* %11, i64 0, i64 %74
  %76 = load i8, i8* %75, align 1
  %77 = sext i8 %76 to i32
  %78 = sub nsw i32 %77, 87
  %79 = load i32, i32* %4, align 4
  %80 = sext i32 %79 to i64
  %81 = getelementptr inbounds [1000 x i32], [1000 x i32]* %1, i64 0, i64 %80
  store i32 %78, i32* %81, align 4
  br label %82

82:                                               ; preds = %72, %65, %58
  %83 = load i32, i32* %4, align 4
  %84 = sext i32 %83 to i64
  %85 = getelementptr inbounds [1000 x i8], [1000 x i8]* %11, i64 0, i64 %84
  %86 = load i8, i8* %85, align 1
  %87 = sext i8 %86 to i32
  %88 = icmp sle i32 %87, 57
  br i1 %88, label %89, label %106

89:                                               ; preds = %82
  %90 = load i32, i32* %4, align 4
  %91 = sext i32 %90 to i64
  %92 = getelementptr inbounds [1000 x i8], [1000 x i8]* %11, i64 0, i64 %91
  %93 = load i8, i8* %92, align 1
  %94 = sext i8 %93 to i32
  %95 = icmp sge i32 %94, 48
  br i1 %95, label %96, label %106

96:                                               ; preds = %89
  %97 = load i32, i32* %4, align 4
  %98 = sext i32 %97 to i64
  %99 = getelementptr inbounds [1000 x i8], [1000 x i8]* %11, i64 0, i64 %98
  %100 = load i8, i8* %99, align 1
  %101 = sext i8 %100 to i32
  %102 = sub nsw i32 %101, 48
  %103 = load i32, i32* %4, align 4
  %104 = sext i32 %103 to i64
  %105 = getelementptr inbounds [1000 x i32], [1000 x i32]* %1, i64 0, i64 %104
  store i32 %102, i32* %105, align 4
  br label %106

106:                                              ; preds = %96, %89, %82
  br label %107

107:                                              ; preds = %106
  %108 = load i32, i32* %4, align 4
  %109 = add nsw i32 %108, 1
  store i32 %109, i32* %4, align 4
  br label %30

110:                                              ; preds = %30
  store i32 0, i32* %4, align 4
  br label %111

111:                                              ; preds = %140, %110
  %112 = load i32, i32* %4, align 4
  %113 = load i32, i32* %7, align 4
  %114 = icmp slt i32 %112, %113
  br i1 %114, label %115, label %143

115:                                              ; preds = %111
  %116 = load i32, i32* %5, align 4
  %117 = sitofp i32 %116 to double
  %118 = load i32, i32* %4, align 4
  %119 = sitofp i32 %118 to double
  %120 = call double @pow(double %117, double %119) #5
  %121 = fptosi double %120 to i32
  store i32 %121, i32* %9, align 4
  %122 = load i32, i32* %7, align 4
  %123 = load i32, i32* %4, align 4
  %124 = sub nsw i32 %122, %123
  %125 = sub nsw i32 %124, 1
  %126 = sext i32 %125 to i64
  %127 = getelementptr inbounds [1000 x i32], [1000 x i32]* %1, i64 0, i64 %126
  %128 = load i32, i32* %127, align 4
  %129 = load i32, i32* %9, align 4
  %130 = mul nsw i32 %128, %129
  %131 = load i32, i32* %4, align 4
  %132 = sext i32 %131 to i64
  %133 = getelementptr inbounds [1000 x i32], [1000 x i32]* %2, i64 0, i64 %132
  store i32 %130, i32* %133, align 4
  %134 = load i32, i32* %10, align 4
  %135 = load i32, i32* %4, align 4
  %136 = sext i32 %135 to i64
  %137 = getelementptr inbounds [1000 x i32], [1000 x i32]* %2, i64 0, i64 %136
  %138 = load i32, i32* %137, align 4
  %139 = add nsw i32 %134, %138
  store i32 %139, i32* %10, align 4
  br label %140

140:                                              ; preds = %115
  %141 = load i32, i32* %4, align 4
  %142 = add nsw i32 %141, 1
  store i32 %142, i32* %4, align 4
  br label %111

143:                                              ; preds = %111
  store i32 0, i32* %4, align 4
  br label %144

144:                                              ; preds = %159, %143
  %145 = load i32, i32* %10, align 4
  %146 = icmp sgt i32 %145, 0
  br i1 %146, label %147, label %162

147:                                              ; preds = %144
  %148 = load i32, i32* %10, align 4
  %149 = load i32, i32* %6, align 4
  %150 = srem i32 %148, %149
  %151 = load i32, i32* %4, align 4
  %152 = sext i32 %151 to i64
  %153 = getelementptr inbounds [1000 x i32], [1000 x i32]* %3, i64 0, i64 %152
  store i32 %150, i32* %153, align 4
  %154 = load i32, i32* %8, align 4
  %155 = add nsw i32 %154, 1
  store i32 %155, i32* %8, align 4
  %156 = load i32, i32* %10, align 4
  %157 = load i32, i32* %6, align 4
  %158 = sdiv i32 %156, %157
  store i32 %158, i32* %10, align 4
  br label %159

159:                                              ; preds = %147
  %160 = load i32, i32* %4, align 4
  %161 = add nsw i32 %160, 1
  store i32 %161, i32* %4, align 4
  br label %144

162:                                              ; preds = %144
  %163 = load i32, i32* %8, align 4
  %164 = sub nsw i32 %163, 1
  store i32 %164, i32* %4, align 4
  br label %165

165:                                              ; preds = %219, %162
  %166 = load i32, i32* %4, align 4
  %167 = icmp sge i32 %166, 0
  br i1 %167, label %168, label %222

168:                                              ; preds = %165
  %169 = load i32, i32* %4, align 4
  %170 = sext i32 %169 to i64
  %171 = getelementptr inbounds [1000 x i32], [1000 x i32]* %3, i64 0, i64 %170
  %172 = load i32, i32* %171, align 4
  %173 = icmp sle i32 %172, 9
  br i1 %173, label %174, label %190

174:                                              ; preds = %168
  %175 = load i32, i32* %4, align 4
  %176 = sext i32 %175 to i64
  %177 = getelementptr inbounds [1000 x i32], [1000 x i32]* %3, i64 0, i64 %176
  %178 = load i32, i32* %177, align 4
  %179 = icmp sge i32 %178, 0
  br i1 %179, label %180, label %190

180:                                              ; preds = %174
  %181 = load i32, i32* %4, align 4
  %182 = sext i32 %181 to i64
  %183 = getelementptr inbounds [1000 x i32], [1000 x i32]* %3, i64 0, i64 %182
  %184 = load i32, i32* %183, align 4
  %185 = add nsw i32 %184, 48
  %186 = trunc i32 %185 to i8
  %187 = load i32, i32* %4, align 4
  %188 = sext i32 %187 to i64
  %189 = getelementptr inbounds [1000 x i8], [1000 x i8]* %12, i64 0, i64 %188
  store i8 %186, i8* %189, align 1
  br label %190

190:                                              ; preds = %180, %174, %168
  %191 = load i32, i32* %4, align 4
  %192 = sext i32 %191 to i64
  %193 = getelementptr inbounds [1000 x i32], [1000 x i32]* %3, i64 0, i64 %192
  %194 = load i32, i32* %193, align 4
  %195 = icmp sle i32 %194, 36
  br i1 %195, label %196, label %212

196:                                              ; preds = %190
  %197 = load i32, i32* %4, align 4
  %198 = sext i32 %197 to i64
  %199 = getelementptr inbounds [1000 x i32], [1000 x i32]* %3, i64 0, i64 %198
  %200 = load i32, i32* %199, align 4
  %201 = icmp sge i32 %200, 10
  br i1 %201, label %202, label %212

202:                                              ; preds = %196
  %203 = load i32, i32* %4, align 4
  %204 = sext i32 %203 to i64
  %205 = getelementptr inbounds [1000 x i32], [1000 x i32]* %3, i64 0, i64 %204
  %206 = load i32, i32* %205, align 4
  %207 = add nsw i32 %206, 55
  %208 = trunc i32 %207 to i8
  %209 = load i32, i32* %4, align 4
  %210 = sext i32 %209 to i64
  %211 = getelementptr inbounds [1000 x i8], [1000 x i8]* %12, i64 0, i64 %210
  store i8 %208, i8* %211, align 1
  br label %212

212:                                              ; preds = %202, %196, %190
  %213 = load i32, i32* %4, align 4
  %214 = sext i32 %213 to i64
  %215 = getelementptr inbounds [1000 x i8], [1000 x i8]* %12, i64 0, i64 %214
  %216 = load i8, i8* %215, align 1
  %217 = sext i8 %216 to i32
  %218 = call i32 (i8*, ...) @printf(i8* getelementptr inbounds ([3 x i8], [3 x i8]* @.str.2, i64 0, i64 0), i32 %217)
  br label %219

219:                                              ; preds = %212
  %220 = load i32, i32* %4, align 4
  %221 = add nsw i32 %220, -1
  store i32 %221, i32* %4, align 4
  br label %165

222:                                              ; preds = %165
  br label %223

223:                                              ; preds = %222, %24
  ret void
}

declare dso_local i32 @__isoc99_scanf(i8*, ...) #1

; Function Attrs: nounwind readonly
declare dso_local i64 @strlen(i8*) #2

declare dso_local i32 @printf(i8*, ...) #1

; Function Attrs: nounwind
declare dso_local double @pow(double, double) #3


!llvm.module.flags = !{!0}
!llvm.ident = !{!1}

!0 = !{i32 1, !"wchar_size", i32 4}
!1 = !{!"clang version 10.0.0-4ubuntu1 "}
